target datalayout = "e-m:e-p270:32:32-p271:32:32-p272:64:64-i64:64-i128:128-f80:128-n8:16:32:64-S128"
target triple = "x86_64-pc-linux-gnu"

%struct.Cnf_Dat_t_ = type { ptr, i32, i32, i32, ptr, ptr, ptr, ptr, ptr, ptr }

; Function Attrs: nounwind uwtable
define ptr @Gia_ManSatokoInit(ptr noundef %0, ptr noundef %1) #0 {
  %3 = alloca ptr, align 8
  %4 = alloca ptr, align 8
  %5 = alloca ptr, align 8
  %6 = alloca ptr, align 8
  %7 = alloca i32, align 4
  %8 = alloca i32, align 4
  store ptr %0, ptr %4, align 8, !tbaa !38
  store ptr %1, ptr %5, align 8, !tbaa !29
  call void @llvm.lifetime.start.p0(i64 8, ptr %6) #11
  %9 = call ptr @satoko_create()
  store ptr %9, ptr %6, align 8, !tbaa !31
  call void @llvm.lifetime.start.p0(i64 4, ptr %7) #11
  store i32 0, ptr %7, align 4, !tbaa !3
  br label %10

10:                                               ; preds = %50, %2
  %11 = load i32, ptr %7, align 4, !tbaa !3
  %12 = load ptr, ptr %4, align 8, !tbaa !38
  %13 = getelementptr inbounds nuw %struct.Cnf_Dat_t_, ptr %12, i32 0, i32 3
  %14 = load i32, ptr %13, align 8, !tbaa !40
  %15 = icmp slt i32 %11, %14
  br i1 %15, label %16, label %53

16:                                               ; preds = %10
  %17 = load ptr, ptr %6, align 8, !tbaa !31
  %18 = load ptr, ptr %4, align 8, !tbaa !38
  %19 = getelementptr inbounds nuw %struct.Cnf_Dat_t_, ptr %18, i32 0, i32 4
  %20 = load ptr, ptr %19, align 8, !tbaa !44
  %21 = load i32, ptr %7, align 4, !tbaa !3
  %22 = sext i32 %21 to i64
  %23 = getelementptr inbounds ptr, ptr %20, i64 %22
  %24 = load ptr, ptr %23, align 8, !tbaa !12
  %25 = load ptr, ptr %4, align 8, !tbaa !38
  %26 = getelementptr inbounds nuw %struct.Cnf_Dat_t_, ptr %25, i32 0, i32 4
  %27 = load ptr, ptr %26, align 8, !tbaa !44
  %28 = load i32, ptr %7, align 4, !tbaa !3
  %29 = add nsw i32 %28, 1
  %30 = sext i32 %29 to i64
  %31 = getelementptr inbounds ptr, ptr %27, i64 %30
  %32 = load ptr, ptr %31, align 8, !tbaa !12
  %33 = load ptr, ptr %4, align 8, !tbaa !38
  %34 = getelementptr inbounds nuw %struct.Cnf_Dat_t_, ptr %33, i32 0, i32 4
  %35 = load ptr, ptr %34, align 8, !tbaa !44
  %36 = load i32, ptr %7, align 4, !tbaa !3
  %37 = sext i32 %36 to i64
  %38 = getelementptr inbounds ptr, ptr %35, i64 %37
  %39 = load ptr, ptr %38, align 8, !tbaa !12
  %40 = ptrtoint ptr %32 to i64
  %41 = ptrtoint ptr %39 to i64
  %42 = sub i64 %40, %41
  %43 = sdiv exact i64 %42, 4
  %44 = trunc i64 %43 to i32
  %45 = call i32 @satoko_add_clause(ptr noundef %17, ptr noundef %24, i32 noundef %44)
  %46 = icmp ne i32 %45, 0
  br i1 %46, label %49, label %47

47:                                               ; preds = %16
  %48 = load ptr, ptr %6, align 8, !tbaa !31
  call void @satoko_destroy(ptr noundef %48)
  store ptr null, ptr %3, align 8
  store i32 1, ptr %8, align 4
  br label %57

49:                                               ; preds = %16
  br label %50

50:                                               ; preds = %49
  %51 = load i32, ptr %7, align 4, !tbaa !3
  %52 = add nsw i32 %51, 1
  store i32 %52, ptr %7, align 4, !tbaa !3
  br label %10, !llvm.loop !45

53:                                               ; preds = %10
  %54 = load ptr, ptr %6, align 8, !tbaa !31
  %55 = load ptr, ptr %5, align 8, !tbaa !29
  call void @satoko_configure(ptr noundef %54, ptr noundef %55)
  %56 = load ptr, ptr %6, align 8, !tbaa !31
  store ptr %56, ptr %3, align 8
  store i32 1, ptr %8, align 4
  br label %57

57:                                               ; preds = %53, %47
  call void @llvm.lifetime.end.p0(i64 4, ptr %7) #11
  call void @llvm.lifetime.end.p0(i64 8, ptr %6) #11
  %58 = load ptr, ptr %3, align 8
  ret ptr %58
}

; Function Attrs: nounwind uwtable
define ptr @Gia_ManSatokoCreate(ptr noundef %0, ptr noundef %1) #0 {
  %3 = alloca ptr, align 8
  %4 = alloca ptr, align 8
  %5 = alloca ptr, align 8
  %6 = alloca ptr, align 8
  %7 = alloca ptr, align 8
  %8 = alloca i32, align 4
  %9 = alloca i32, align 4
  store ptr %0, ptr %4, align 8, !tbaa !46
  store ptr %1, ptr %5, align 8, !tbaa !29
  call void @llvm.lifetime.start.p0(i64 8, ptr %6) #11
  %10 = load ptr, ptr %4, align 8, !tbaa !46
  %11 = call ptr @Mf_ManGenerateCnf(ptr noundef %10, i32 noundef 8, i32 noundef 0, i32 noundef 1, i32 noundef 0, i32 noundef 0)
  store ptr %11, ptr %6, align 8, !tbaa !38
  call void @llvm.lifetime.start.p0(i64 8, ptr %7) #11
  %12 = load ptr, ptr %6, align 8, !tbaa !38
  %13 = load ptr, ptr %5, align 8, !tbaa !29
  %14 = call ptr @Gia_ManSatokoInit(ptr noundef %12, ptr noundef %13)
  store ptr %14, ptr %7, align 8, !tbaa !31
  call void @llvm.lifetime.start.p0(i64 4, ptr %8) #11
  %15 = load ptr, ptr %7, align 8, !tbaa !31
  %16 = icmp ne ptr %15, null
  br i1 %16, label %17, label %20

17:                                               ; preds = %2
  %18 = load ptr, ptr %7, align 8, !tbaa !31
  %19 = call i32 @satoko_simplify(ptr noundef %18)
  br label %21

20:                                               ; preds = %2
  br label %21

21:                                               ; preds = %20, %17
  %22 = phi i32 [ %19, %17 ], [ 1, %20 ]
  store i32 %22, ptr %8, align 4, !tbaa !3
  %23 = load ptr, ptr %6, align 8, !tbaa !38
  call void @Cnf_DataFree(ptr noundef %23)
  %24 = load i32, ptr %8, align 4, !tbaa !3
  %25 = icmp eq i32 %24, 1
  br i1 %25, label %26, label %28

26:                                               ; preds = %21
  %27 = load ptr, ptr %7, align 8, !tbaa !31
  store ptr %27, ptr %3, align 8
  store i32 1, ptr %9, align 4
  br label %30

28:                                               ; preds = %21
  %29 = load ptr, ptr %7, align 8, !tbaa !31
  call void @satoko_destroy(ptr noundef %29)
  store ptr null, ptr %3, align 8
  store i32 1, ptr %9, align 4
  br label %30

30:                                               ; preds = %28, %26
  call void @llvm.lifetime.end.p0(i64 4, ptr %8) #11
  call void @llvm.lifetime.end.p0(i64 8, ptr %7) #11
  call void @llvm.lifetime.end.p0(i64 8, ptr %6) #11
  %31 = load ptr, ptr %3, align 8
  ret ptr %31
}