; Function Attrs: nounwind uwtable
define ptr @Gia_ManSatokoCreate(ptr noundef %0, ptr noundef %1) local_unnamed_addr #0 {
  %3 = tail call ptr @Mf_ManGenerateCnf(ptr noundef %0, i32 noundef 8, i32 noundef 0, i32 noundef 1, i32 noundef 0, i32 noundef 0) #16
  %4 = tail call ptr @satoko_create() #16
  %5 = getelementptr inbounds nuw i8, ptr %3, i64 16
  %6 = getelementptr inbounds nuw i8, ptr %3, i64 24
  br label %7

7:                                                ; preds = %11, %2
  %indvars.iv.i = phi i64 [ %indvars.iv.next.i, %11 ], [ 0, %2 ]
  %8 = load i32, ptr %5, align 8, !tbaa !33
  %9 = sext i32 %8 to i64
  %10 = icmp slt i64 %indvars.iv.i, %9
  br i1 %10, label %11, label %Gia_ManSatokoInit.exit

11:                                               ; preds = %7
  %12 = load ptr, ptr %6, align 8, !tbaa !39
  %13 = getelementptr inbounds nuw ptr, ptr %12, i64 %indvars.iv.i
  %14 = load ptr, ptr %13, align 8, !tbaa !40
  %indvars.iv.next.i = add nuw nsw i64 %indvars.iv.i, 1
  %15 = getelementptr inbounds nuw ptr, ptr %12, i64 %indvars.iv.next.i
  %16 = load ptr, ptr %15, align 8, !tbaa !40
  %17 = ptrtoint ptr %16 to i64
  %18 = ptrtoint ptr %14 to i64
  %19 = sub i64 %17, %18
  %20 = lshr exact i64 %19, 2
  %21 = trunc i64 %20 to i32
  %22 = tail call i32 @satoko_add_clause(ptr noundef %4, ptr noundef %14, i32 noundef %21) #16
  %.not.i = icmp eq i32 %22, 0
  br i1 %.not.i, label %Gia_ManSatokoInit.exit.thread, label %7, !llvm.loop !41

Gia_ManSatokoInit.exit.thread:                    ; preds = %11
  tail call void @satoko_destroy(ptr noundef %4) #16
  br label %.critedge

Gia_ManSatokoInit.exit:                           ; preds = %7
  tail call void @satoko_configure(ptr noundef %4, ptr noundef %1) #16
  %.not = icmp eq ptr %4, null
  br i1 %.not, label %.critedge, label %23

23:                                               ; preds = %Gia_ManSatokoInit.exit
  %24 = tail call i32 @satoko_simplify(ptr noundef nonnull %4) #16
  %25 = icmp eq i32 %24, 1
  tail call void @Cnf_DataFree(ptr noundef nonnull %3) #16
  br i1 %25, label %27, label %26

.critedge:                                        ; preds = %Gia_ManSatokoInit.exit.thread, %Gia_ManSatokoInit.exit
  tail call void @Cnf_DataFree(ptr noundef nonnull %3) #16
  br label %27

26:                                               ; preds = %23
  tail call void @satoko_destroy(ptr noundef nonnull %4) #16
  br label %27

27:                                               ; preds = %23, %.critedge, %26
  %.0 = phi ptr [ null, %26 ], [ null, %.critedge ], [ %4, %23 ]
  ret ptr %.0
}